target datalayout = "e-m:e-p270:32:32-p271:32:32-p272:64:64-i64:64-i128:128-f80:128-n8:16:32:64-S128"
target triple = "x86_64-pc-linux-gnu"

%struct.nodes_t = type { ptr, i64, i64, i64 }

; Function Attrs: inlinehint nounwind uwtable
define internal ptr @nodes_get(ptr noundef %0, i64 noundef %1) #8 {
  %3 = alloca ptr, align 8
  %4 = alloca i64, align 8
  store ptr %0, ptr %3, align 8, !tbaa !49
  store i64 %1, ptr %4, align 8, !tbaa !23
  %5 = load ptr, ptr %3, align 8, !tbaa !49
  %6 = getelementptr inbounds nuw %struct.nodes_t, ptr %5, i32 0, i32 0
  %7 = load ptr, ptr %6, align 8, !tbaa !53
  %8 = load ptr, ptr %3, align 8, !tbaa !49
  %9 = getelementptr inbounds nuw %struct.nodes_t, ptr %8, i32 0, i32 1
  %10 = load i64, ptr %9, align 8, !tbaa !54
  %11 = load i64, ptr %4, align 8, !tbaa !23
  %12 = add i64 %10, %11
  %13 = load ptr, ptr %3, align 8, !tbaa !49
  %14 = getelementptr inbounds nuw %struct.nodes_t, ptr %13, i32 0, i32 3
  %15 = load i64, ptr %14, align 8, !tbaa !55
  %16 = urem i64 %12, %15
  %17 = getelementptr inbounds nuw ptr, ptr %7, i64 %16
  %18 = load ptr, ptr %17, align 8, !tbaa !11
  ret ptr %18
}

; Function Attrs: inlinehint nounwind uwtable
define internal void @nodes_clear(ptr noundef %0) #8 {
  %2 = alloca ptr, align 8
  %3 = alloca i64, align 8
  store ptr %0, ptr %2, align 8, !tbaa !49
  call void @llvm.lifetime.start.p0(i64 8, ptr %3) #12
  store i64 0, ptr %3, align 8, !tbaa !23
  br label %4

4:                                                ; preds = %18, %1
  %5 = load i64, ptr %3, align 8, !tbaa !23
  %6 = load ptr, ptr %2, align 8, !tbaa !49
  %7 = getelementptr inbounds nuw %struct.nodes_t, ptr %6, i32 0, i32 2
  %8 = load i64, ptr %7, align 8, !tbaa !51
  %9 = icmp ult i64 %5, %8
  br i1 %9, label %11, label %10

10:                                               ; preds = %4
  call void @llvm.lifetime.end.p0(i64 8, ptr %3) #12
  br label %21

11:                                               ; preds = %4
  %12 = load ptr, ptr %2, align 8, !tbaa !49
  %13 = load i64, ptr %3, align 8, !tbaa !23
  %14 = call ptr @nodes_get(ptr noundef %12, i64 noundef %13)
  call void @free(ptr noundef %14) #12
  br label %15

15:                                               ; preds = %11
  br label %16

16:                                               ; preds = %15
  br label %17

17:                                               ; preds = %16
  br label %18

18:                                               ; preds = %17
  %19 = load i64, ptr %3, align 8, !tbaa !23
  %20 = add i64 %19, 1
  store i64 %20, ptr %3, align 8, !tbaa !23
  br label %4, !llvm.loop !64

21:                                               ; preds = %10
  %22 = load ptr, ptr %2, align 8, !tbaa !49
  %23 = getelementptr inbounds nuw %struct.nodes_t, ptr %22, i32 0, i32 2
  store i64 0, ptr %23, align 8, !tbaa !51
  %24 = load ptr, ptr %2, align 8, !tbaa !49
  %25 = getelementptr inbounds nuw %struct.nodes_t, ptr %24, i32 0, i32 1
  store i64 0, ptr %25, align 8, !tbaa !54
  ret void
}

; Function Attrs: inlinehint nounwind uwtable
define internal void @nodes_free(ptr noundef %0) #8 {
  %2 = alloca ptr, align 8
  store ptr %0, ptr %2, align 8, !tbaa !49
  %3 = load ptr, ptr %2, align 8, !tbaa !49
  call void @nodes_clear(ptr noundef %3)
  %4 = load ptr, ptr %2, align 8, !tbaa !49
  %5 = getelementptr inbounds nuw %struct.nodes_t, ptr %4, i32 0, i32 0
  %6 = load ptr, ptr %5, align 8, !tbaa !53
  call void @free(ptr noundef %6) #12
  %7 = load ptr, ptr %2, align 8, !tbaa !49
  call void @llvm.memset.p0.i64(ptr align 8 %7, i8 0, i64 32, i1 false)
  ret void
}