; Function Attrs: inlinehint nounwind uwtable
define internal fastcc void @nodes_free(ptr noundef nonnull captures(none) %0) unnamed_addr #11 {
  %2 = getelementptr inbounds nuw i8, ptr %0, i64 16
  %3 = load i64, ptr %2, align 8, !tbaa !44
  %.not.i = icmp eq i64 %3, 0
  br i1 %.not.i, label %nodes_clear.exit, label %.lr.ph.i

.lr.ph.i:                                         ; preds = %1
  %4 = getelementptr inbounds nuw i8, ptr %0, i64 8
  %5 = getelementptr inbounds nuw i8, ptr %0, i64 24
  br label %6

6:                                                ; preds = %6, %.lr.ph.i
  %.06.i = phi i64 [ 0, %.lr.ph.i ], [ %14, %6 ]
  %7 = load ptr, ptr %0, align 8, !tbaa !47
  %8 = load i64, ptr %4, align 8, !tbaa !48
  %9 = add i64 %8, %.06.i
  %10 = load i64, ptr %5, align 8, !tbaa !49
  %11 = urem i64 %9, %10
  %12 = getelementptr inbounds nuw ptr, ptr %7, i64 %11
  %13 = load ptr, ptr %12, align 8, !tbaa !8
  tail call void @free(ptr noundef %13) #18
  %14 = add nuw i64 %.06.i, 1
  %15 = load i64, ptr %2, align 8, !tbaa !44
  %16 = icmp ult i64 %14, %15
  br i1 %16, label %6, label %nodes_clear.exit, !llvm.loop !50

nodes_clear.exit:                                 ; preds = %6, %1
  %17 = getelementptr inbounds nuw i8, ptr %0, i64 8
  tail call void @llvm.memset.p0.i64(ptr noundef nonnull align 8 dereferenceable(16) %17, i8 0, i64 16, i1 false)
  %18 = load ptr, ptr %0, align 8, !tbaa !47
  tail call void @free(ptr noundef %18) #18
  tail call void @llvm.memset.p0.i64(ptr noundef nonnull align 8 dereferenceable(32) %0, i8 0, i64 32, i1 false)
  ret void
}